target datalayout = "e-m:e-p270:32:32-p271:32:32-p272:64:64-i64:64-i128:128-f80:128-n8:16:32:64-S128"
target triple = "x86_64-pc-linux-gnu"

%"class.gmxapi::Signal" = type { %"class.std::unique_ptr" }
%"class.std::unique_ptr" = type { %"struct.std::__uniq_ptr_data" }
%"struct.std::__uniq_ptr_data" = type { %"class.std::__uniq_ptr_impl" }
%"class.std::__uniq_ptr_impl" = type { %"class.std::tuple" }
%"class.std::tuple" = type { %"struct.std::_Tuple_impl" }
%"struct.std::_Tuple_impl" = type { %"struct.std::_Head_base.1" }
%"struct.std::_Head_base.1" = type { ptr }

@.str.1 = private unnamed_addr constant [42 x i8] c"This signaller only handles stop signals.\00", align 1
@.str.3 = private unnamed_addr constant [67 x i8] c"Caller must provide a valid SessionResources to getMdrunnerSignal.\00", align 1
@_ZTIN6gmxapi10UsageErrorE = linkonce_odr constant { ptr, ptr, ptr } { ptr getelementptr inbounds (ptr, ptr @_ZTVN10__cxxabiv120__si_class_type_infoE, i64 2), ptr @_ZTSN6gmxapi10UsageErrorE, ptr @_ZTIN6gmxapi14BasicExceptionINS_10UsageErrorEEE }, comdat, align 8
@_ZN6gmxapi6SignalD1Ev = unnamed_addr alias void (ptr), ptr @_ZN6gmxapi6SignalD2Ev

; Function Attrs: mustprogress uwtable
define void @_ZN6gmxapi17getMdrunnerSignalEPNS_16SessionResourcesENS_2md7signalsE(ptr dead_on_unwind noalias writable sret(%"class.gmxapi::Signal") align 8 %0, ptr noundef %1, i32 noundef %2) #3 personality ptr @__gxx_personality_v0 {
  %4 = alloca ptr, align 8
  %5 = alloca ptr, align 8
  %6 = alloca i32, align 4
  %7 = alloca ptr, align 8
  %8 = alloca i32, align 4
  %9 = alloca i1, align 1
  store ptr %0, ptr %4, align 8
  store ptr %1, ptr %5, align 8
  store i32 %2, ptr %6, align 4
  %10 = load i32, ptr %6, align 4
  %11 = icmp ne i32 %10, 0
  br i1 %11, label %12, label %19

12:                                               ; preds = %3
  %13 = call ptr @__cxa_allocate_exception(i64 40) #12
  invoke void @_ZN6gmxapi26MissingImplementationErrorCI2NS_14BasicExceptionIS0_EEEPKc(ptr noundef nonnull align 8 dereferenceable(40) %13, ptr noundef @.str.1)
          to label %14 unwind label %15

14:                                               ; preds = %12
  call void @__cxa_throw(ptr %13, ptr @_ZTIN6gmxapi26MissingImplementationErrorE, ptr @_ZN6gmxapi26MissingImplementationErrorD2Ev) #14
  unreachable

15:                                               ; preds = %12
  %16 = landingpad { ptr, i32 }
          cleanup
  %17 = extractvalue { ptr, i32 } %16, 0
  store ptr %17, ptr %7, align 8
  %18 = extractvalue { ptr, i32 } %16, 1
  store i32 %18, ptr %8, align 4
  call void @__cxa_free_exception(ptr %13) #12
  br label %35

19:                                               ; preds = %3
  %20 = load ptr, ptr %5, align 8
  %21 = icmp eq ptr %20, null
  br i1 %21, label %22, label %29

22:                                               ; preds = %19
  %23 = call ptr @__cxa_allocate_exception(i64 40) #12
  invoke void @_ZN6gmxapi10UsageErrorCI2NS_14BasicExceptionIS0_EEEPKc(ptr noundef nonnull align 8 dereferenceable(40) %23, ptr noundef @.str.3)
          to label %24 unwind label %25

24:                                               ; preds = %22
  call void @__cxa_throw(ptr %23, ptr @_ZTIN6gmxapi10UsageErrorE, ptr @_ZN6gmxapi10UsageErrorD2Ev) #14
  unreachable

25:                                               ; preds = %22
  %26 = landingpad { ptr, i32 }
          cleanup
  %27 = extractvalue { ptr, i32 } %26, 0
  store ptr %27, ptr %7, align 8
  %28 = extractvalue { ptr, i32 } %26, 1
  store i32 %28, ptr %8, align 4
  call void @__cxa_free_exception(ptr %23) #12
  br label %35

29:                                               ; preds = %19
  store i1 false, ptr %9, align 1
  %30 = load ptr, ptr %5, align 8
  %31 = load i32, ptr %6, align 4
  call void @_ZN6gmxapi16SessionResources17getMdrunnerSignalENS_2md7signalsE(ptr dead_on_unwind writable sret(%"class.gmxapi::Signal") align 8 %0, ptr noundef nonnull align 8 dereferenceable(40) %30, i32 noundef %31)
  store i1 true, ptr %9, align 1
  %32 = load i1, ptr %9, align 1
  br i1 %32, label %34, label %33

33:                                               ; preds = %29
  call void @_ZN6gmxapi6SignalD1Ev(ptr noundef nonnull align 8 dereferenceable(8) %0) #12
  br label %34

34:                                               ; preds = %33, %29
  ret void

35:                                               ; preds = %25, %15
  %36 = load ptr, ptr %7, align 8
  %37 = load i32, ptr %8, align 4
  %38 = insertvalue { ptr, i32 } poison, ptr %36, 0
  %39 = insertvalue { ptr, i32 } %38, i32 %37, 1
  resume { ptr, i32 } %39
}