; Function Attrs: mustprogress uwtable
define void @_ZN6gmxapi17getMdrunnerSignalEPNS_16SessionResourcesENS_2md7signalsE(ptr dead_on_unwind noalias writable sret(%"class.gmxapi::Signal") align 8 %0, ptr noundef %1, i32 noundef %2) local_unnamed_addr #3 personality ptr @__gxx_personality_v0 {
  %.not = icmp eq i32 %2, 0
  br i1 %.not, label %9, label %4

4:                                                ; preds = %3
  %5 = tail call ptr @__cxa_allocate_exception(i64 40) #11
  invoke void @_ZN6gmxapi26MissingImplementationErrorCI2NS_14BasicExceptionIS0_EEEPKc(ptr noundef nonnull align 8 dereferenceable(40) %5, ptr noundef nonnull @.str.1)
          to label %6 unwind label %7

6:                                                ; preds = %4
  tail call void @__cxa_throw(ptr nonnull %5, ptr nonnull @_ZTIN6gmxapi26MissingImplementationErrorE, ptr nonnull @_ZN6gmxapi26MissingImplementationErrorD2Ev) #15
  unreachable

7:                                                ; preds = %4
  %8 = landingpad { ptr, i32 }
          cleanup
  br label %17

9:                                                ; preds = %3
  %10 = icmp eq ptr %1, null
  br i1 %10, label %11, label %16

11:                                               ; preds = %9
  %12 = tail call ptr @__cxa_allocate_exception(i64 40) #11
  invoke void @_ZN6gmxapi10UsageErrorCI2NS_14BasicExceptionIS0_EEEPKc(ptr noundef nonnull align 8 dereferenceable(40) %12, ptr noundef nonnull @.str.3)
          to label %13 unwind label %14

13:                                               ; preds = %11
  tail call void @__cxa_throw(ptr nonnull %12, ptr nonnull @_ZTIN6gmxapi10UsageErrorE, ptr nonnull @_ZN6gmxapi10UsageErrorD2Ev) #15
  unreachable

14:                                               ; preds = %11
  %15 = landingpad { ptr, i32 }
          cleanup
  br label %17

16:                                               ; preds = %9
  tail call void @_ZN6gmxapi16SessionResources17getMdrunnerSignalENS_2md7signalsE(ptr dead_on_unwind writable sret(%"class.gmxapi::Signal") align 8 %0, ptr noundef nonnull align 8 dereferenceable(40) %1, i32 noundef 0)
  ret void

17:                                               ; preds = %14, %7
  %.sink = phi ptr [ %12, %14 ], [ %5, %7 ]
  %.pn = phi { ptr, i32 } [ %15, %14 ], [ %8, %7 ]
  tail call void @__cxa_free_exception(ptr %.sink) #11
  resume { ptr, i32 } %.pn
}